target datalayout = "e-m:e-p270:32:32-p271:32:32-p272:64:64-i64:64-i128:128-f80:128-n8:16:32:64-S128"
target triple = "x86_64-pc-linux-gnu"

@_ZN9CDSConfig27_is_using_full_module_graphE = hidden global i8 1, align 1
@UseSharedSpaces = external global i8, align 1
@UseG1GC = external global i8, align 1
@UseCompressedClassPointers = external global i8, align 1
@_ZN21ClassLoaderDataShared25_full_module_graph_loadedE = external global i8, align 1

; Function Attrs: mustprogress nounwind uwtable
define linkonce_odr hidden noundef zeroext i1 @_ZN17ArchiveHeapLoader7can_mapEv() #1 comdat align 2 {
  %1 = load i8, ptr @UseG1GC, align 1
  %2 = trunc i8 %1 to i1
  br i1 %2, label %3, label %6

3:                                                ; preds = %0
  %4 = load i8, ptr @UseCompressedClassPointers, align 1
  %5 = trunc i8 %4 to i1
  br label %6

6:                                                ; preds = %3, %0
  %7 = phi i1 [ false, %0 ], [ %5, %3 ]
  ret i1 %7
}

; Function Attrs: mustprogress nounwind uwtable
define linkonce_odr hidden noundef zeroext i1 @_ZN17ArchiveHeapLoader7can_useEv() #1 comdat align 2 {
  %1 = call noundef zeroext i1 @_ZN17ArchiveHeapLoader7can_mapEv()
  br i1 %1, label %4, label %2

2:                                                ; preds = %0
  %3 = call noundef zeroext i1 @_ZN17ArchiveHeapLoader8can_loadEv()
  br label %4

4:                                                ; preds = %2, %0
  %5 = phi i1 [ true, %0 ], [ %3, %2 ]
  ret i1 %5
}

; Function Attrs: mustprogress nounwind uwtable
define hidden noundef zeroext i1 @_ZN9CDSConfig16is_using_archiveEv() #1 align 2 {
  %1 = load i8, ptr @UseSharedSpaces, align 1
  %2 = icmp ne i8 %1, 0
  ret i1 %2
}

; Function Attrs: mustprogress nounwind uwtable
define linkonce_odr hidden noundef zeroext i1 @_ZN21ClassLoaderDataShared27is_full_module_graph_loadedEv() #1 comdat align 2 {
  %1 = load i8, ptr @_ZN21ClassLoaderDataShared25_full_module_graph_loadedE, align 1
  %2 = trunc i8 %1 to i1
  ret i1 %2
}

; Function Attrs: mustprogress nounwind uwtable
define hidden noundef zeroext i1 @_ZN9CDSConfig26is_using_full_module_graphEv() #1 align 2 {
  %1 = alloca i1, align 1
  %2 = call noundef zeroext i1 @_ZN21ClassLoaderDataShared27is_full_module_graph_loadedEv()
  br i1 %2, label %3, label %4

3:                                                ; preds = %0
  store i1 true, ptr %1, align 1
  br label %14

4:                                                ; preds = %0
  %5 = load i8, ptr @_ZN9CDSConfig27_is_using_full_module_graphE, align 1
  %6 = trunc i8 %5 to i1
  br i1 %6, label %8, label %7

7:                                                ; preds = %4
  store i1 false, ptr %1, align 1
  br label %14

8:                                                ; preds = %4
  %9 = call noundef zeroext i1 @_ZN9CDSConfig16is_using_archiveEv()
  br i1 %9, label %10, label %13

10:                                               ; preds = %8
  %11 = call noundef zeroext i1 @_ZN17ArchiveHeapLoader7can_useEv()
  br i1 %11, label %12, label %13

12:                                               ; preds = %10
  store i1 true, ptr %1, align 1
  br label %14

13:                                               ; preds = %10, %8
  store i8 0, ptr @_ZN9CDSConfig27_is_using_full_module_graphE, align 1
  store i1 false, ptr %1, align 1
  br label %14

14:                                               ; preds = %13, %12, %7, %3
  %15 = load i1, ptr %1, align 1
  ret i1 %15
}