; Function Attrs: mustprogress nounwind uwtable
define hidden noundef zeroext i1 @_ZN9CDSConfig26is_using_full_module_graphEv() local_unnamed_addr #2 align 2 {
  %1 = load i8, ptr @_ZN21ClassLoaderDataShared25_full_module_graph_loadedE, align 1
  %2 = trunc i8 %1 to i1
  br i1 %2, label %_ZN17ArchiveHeapLoader7can_useEv.exit.thread, label %3

3:                                                ; preds = %0
  %4 = load i8, ptr @_ZN9CDSConfig27_is_using_full_module_graphE, align 1
  %5 = trunc i8 %4 to i1
  br i1 %5, label %6, label %_ZN17ArchiveHeapLoader7can_useEv.exit.thread

6:                                                ; preds = %3
  %7 = load i8, ptr @UseSharedSpaces, align 1
  %.not = icmp eq i8 %7, 0
  br i1 %.not, label %15, label %8

8:                                                ; preds = %6
  %9 = load i8, ptr @UseG1GC, align 1
  %10 = trunc i8 %9 to i1
  %11 = load i8, ptr @UseCompressedClassPointers, align 1
  %12 = trunc i8 %11 to i1
  %13 = select i1 %10, i1 %12, i1 false
  br i1 %13, label %_ZN17ArchiveHeapLoader7can_useEv.exit.thread, label %_ZN17ArchiveHeapLoader7can_useEv.exit

_ZN17ArchiveHeapLoader7can_useEv.exit:            ; preds = %8
  %14 = tail call noundef zeroext i1 @_ZN17ArchiveHeapLoader8can_loadEv() #9
  br i1 %14, label %_ZN17ArchiveHeapLoader7can_useEv.exit.thread, label %15

15:                                               ; preds = %_ZN17ArchiveHeapLoader7can_useEv.exit, %6
  store i8 0, ptr @_ZN9CDSConfig27_is_using_full_module_graphE, align 1
  br label %_ZN17ArchiveHeapLoader7can_useEv.exit.thread

_ZN17ArchiveHeapLoader7can_useEv.exit.thread:     ; preds = %8, %_ZN17ArchiveHeapLoader7can_useEv.exit, %3, %0, %15
  %.0 = phi i1 [ false, %15 ], [ true, %0 ], [ false, %3 ], [ true, %_ZN17ArchiveHeapLoader7can_useEv.exit ], [ true, %8 ]
  ret i1 %.0
}